
remoteguess:     file format elf64-x86-64


Disassembly of section .init:

0000000000001000 <_init>:
    1000:	f3 0f 1e fa          	endbr64 
    1004:	48 83 ec 08          	sub    rsp,0x8
    1008:	48 8b 05 d9 2f 00 00 	mov    rax,QWORD PTR [rip+0x2fd9]        # 3fe8 <__gmon_start__@Base>
    100f:	48 85 c0             	test   rax,rax
    1012:	74 02                	je     1016 <_init+0x16>
    1014:	ff d0                	call   rax
    1016:	48 83 c4 08          	add    rsp,0x8
    101a:	c3                   	ret    

Disassembly of section .plt:

0000000000001020 <.plt>:
    1020:	ff 35 12 2f 00 00    	push   QWORD PTR [rip+0x2f12]        # 3f38 <_GLOBAL_OFFSET_TABLE_+0x8>
    1026:	f2 ff 25 13 2f 00 00 	bnd jmp QWORD PTR [rip+0x2f13]        # 3f40 <_GLOBAL_OFFSET_TABLE_+0x10>
    102d:	0f 1f 00             	nop    DWORD PTR [rax]
    1030:	f3 0f 1e fa          	endbr64 
    1034:	68 00 00 00 00       	push   0x0
    1039:	f2 e9 e1 ff ff ff    	bnd jmp 1020 <_init+0x20>
    103f:	90                   	nop
    1040:	f3 0f 1e fa          	endbr64 
    1044:	68 01 00 00 00       	push   0x1
    1049:	f2 e9 d1 ff ff ff    	bnd jmp 1020 <_init+0x20>
    104f:	90                   	nop
    1050:	f3 0f 1e fa          	endbr64 
    1054:	68 02 00 00 00       	push   0x2
    1059:	f2 e9 c1 ff ff ff    	bnd jmp 1020 <_init+0x20>
    105f:	90                   	nop
    1060:	f3 0f 1e fa          	endbr64 
    1064:	68 03 00 00 00       	push   0x3
    1069:	f2 e9 b1 ff ff ff    	bnd jmp 1020 <_init+0x20>
    106f:	90                   	nop
    1070:	f3 0f 1e fa          	endbr64 
    1074:	68 04 00 00 00       	push   0x4
    1079:	f2 e9 a1 ff ff ff    	bnd jmp 1020 <_init+0x20>
    107f:	90                   	nop
    1080:	f3 0f 1e fa          	endbr64 
    1084:	68 05 00 00 00       	push   0x5
    1089:	f2 e9 91 ff ff ff    	bnd jmp 1020 <_init+0x20>
    108f:	90                   	nop
    1090:	f3 0f 1e fa          	endbr64 
    1094:	68 06 00 00 00       	push   0x6
    1099:	f2 e9 81 ff ff ff    	bnd jmp 1020 <_init+0x20>
    109f:	90                   	nop
    10a0:	f3 0f 1e fa          	endbr64 
    10a4:	68 07 00 00 00       	push   0x7
    10a9:	f2 e9 71 ff ff ff    	bnd jmp 1020 <_init+0x20>
    10af:	90                   	nop
    10b0:	f3 0f 1e fa          	endbr64 
    10b4:	68 08 00 00 00       	push   0x8
    10b9:	f2 e9 61 ff ff ff    	bnd jmp 1020 <_init+0x20>
    10bf:	90                   	nop
    10c0:	f3 0f 1e fa          	endbr64 
    10c4:	68 09 00 00 00       	push   0x9
    10c9:	f2 e9 51 ff ff ff    	bnd jmp 1020 <_init+0x20>
    10cf:	90                   	nop
    10d0:	f3 0f 1e fa          	endbr64 
    10d4:	68 0a 00 00 00       	push   0xa
    10d9:	f2 e9 41 ff ff ff    	bnd jmp 1020 <_init+0x20>
    10df:	90                   	nop
    10e0:	f3 0f 1e fa          	endbr64 
    10e4:	68 0b 00 00 00       	push   0xb
    10e9:	f2 e9 31 ff ff ff    	bnd jmp 1020 <_init+0x20>
    10ef:	90                   	nop
    10f0:	f3 0f 1e fa          	endbr64 
    10f4:	68 0c 00 00 00       	push   0xc
    10f9:	f2 e9 21 ff ff ff    	bnd jmp 1020 <_init+0x20>
    10ff:	90                   	nop
    1100:	f3 0f 1e fa          	endbr64 
    1104:	68 0d 00 00 00       	push   0xd
    1109:	f2 e9 11 ff ff ff    	bnd jmp 1020 <_init+0x20>
    110f:	90                   	nop
    1110:	f3 0f 1e fa          	endbr64 
    1114:	68 0e 00 00 00       	push   0xe
    1119:	f2 e9 01 ff ff ff    	bnd jmp 1020 <_init+0x20>
    111f:	90                   	nop
    1120:	f3 0f 1e fa          	endbr64 
    1124:	68 0f 00 00 00       	push   0xf
    1129:	f2 e9 f1 fe ff ff    	bnd jmp 1020 <_init+0x20>
    112f:	90                   	nop
    1130:	f3 0f 1e fa          	endbr64 
    1134:	68 10 00 00 00       	push   0x10
    1139:	f2 e9 e1 fe ff ff    	bnd jmp 1020 <_init+0x20>
    113f:	90                   	nop

Disassembly of section .plt.got:

0000000000001140 <printf@plt>:
    1140:	f3 0f 1e fa          	endbr64 
    1144:	f2 ff 25 95 2e 00 00 	bnd jmp QWORD PTR [rip+0x2e95]        # 3fe0 <printf@GLIBC_2.2.5>
    114b:	0f 1f 44 00 00       	nop    DWORD PTR [rax+rax*1+0x0]

0000000000001150 <__cxa_finalize@plt>:
    1150:	f3 0f 1e fa          	endbr64 
    1154:	f2 ff 25 9d 2e 00 00 	bnd jmp QWORD PTR [rip+0x2e9d]        # 3ff8 <__cxa_finalize@GLIBC_2.2.5>
    115b:	0f 1f 44 00 00       	nop    DWORD PTR [rax+rax*1+0x0]

Disassembly of section .plt.sec:

0000000000001160 <putchar@plt>:
    1160:	f3 0f 1e fa          	endbr64 
    1164:	f2 ff 25 dd 2d 00 00 	bnd jmp QWORD PTR [rip+0x2ddd]        # 3f48 <putchar@GLIBC_2.2.5>
    116b:	0f 1f 44 00 00       	nop    DWORD PTR [rax+rax*1+0x0]

0000000000001170 <_exit@plt>:
    1170:	f3 0f 1e fa          	endbr64 
    1174:	f2 ff 25 d5 2d 00 00 	bnd jmp QWORD PTR [rip+0x2dd5]        # 3f50 <_exit@GLIBC_2.2.5>
    117b:	0f 1f 44 00 00       	nop    DWORD PTR [rax+rax*1+0x0]

0000000000001180 <puts@plt>:
    1180:	f3 0f 1e fa          	endbr64 
    1184:	f2 ff 25 cd 2d 00 00 	bnd jmp QWORD PTR [rip+0x2dcd]        # 3f58 <puts@GLIBC_2.2.5>
    118b:	0f 1f 44 00 00       	nop    DWORD PTR [rax+rax*1+0x0]

0000000000001190 <write@plt>:
    1190:	f3 0f 1e fa          	endbr64 
    1194:	f2 ff 25 c5 2d 00 00 	bnd jmp QWORD PTR [rip+0x2dc5]        # 3f60 <write@GLIBC_2.2.5>
    119b:	0f 1f 44 00 00       	nop    DWORD PTR [rax+rax*1+0x0]

00000000000011a0 <__stack_chk_fail@plt>:
    11a0:	f3 0f 1e fa          	endbr64 
    11a4:	f2 ff 25 bd 2d 00 00 	bnd jmp QWORD PTR [rip+0x2dbd]        # 3f68 <__stack_chk_fail@GLIBC_2.4>
    11ab:	0f 1f 44 00 00       	nop    DWORD PTR [rax+rax*1+0x0]

00000000000011b0 <mmap@plt>:
    11b0:	f3 0f 1e fa          	endbr64 
    11b4:	f2 ff 25 b5 2d 00 00 	bnd jmp QWORD PTR [rip+0x2db5]        # 3f70 <mmap@GLIBC_2.2.5>
    11bb:	0f 1f 44 00 00       	nop    DWORD PTR [rax+rax*1+0x0]

00000000000011c0 <close@plt>:
    11c0:	f3 0f 1e fa          	endbr64 
    11c4:	f2 ff 25 ad 2d 00 00 	bnd jmp QWORD PTR [rip+0x2dad]        # 3f78 <close@GLIBC_2.2.5>
    11cb:	0f 1f 44 00 00       	nop    DWORD PTR [rax+rax*1+0x0]

00000000000011d0 <read@plt>:
    11d0:	f3 0f 1e fa          	endbr64 
    11d4:	f2 ff 25 a5 2d 00 00 	bnd jmp QWORD PTR [rip+0x2da5]        # 3f80 <read@GLIBC_2.2.5>
    11db:	0f 1f 44 00 00       	nop    DWORD PTR [rax+rax*1+0x0]

00000000000011e0 <fgets@plt>:
    11e0:	f3 0f 1e fa          	endbr64 
    11e4:	f2 ff 25 9d 2d 00 00 	bnd jmp QWORD PTR [rip+0x2d9d]        # 3f88 <fgets@GLIBC_2.2.5>
    11eb:	0f 1f 44 00 00       	nop    DWORD PTR [rax+rax*1+0x0]

00000000000011f0 <strtol@plt>:
    11f0:	f3 0f 1e fa          	endbr64 
    11f4:	f2 ff 25 95 2d 00 00 	bnd jmp QWORD PTR [rip+0x2d95]        # 3f90 <strtol@GLIBC_2.2.5>
    11fb:	0f 1f 44 00 00       	nop    DWORD PTR [rax+rax*1+0x0]

0000000000001200 <__isoc99_sscanf@plt>:
    1200:	f3 0f 1e fa          	endbr64 
    1204:	f2 ff 25 8d 2d 00 00 	bnd jmp QWORD PTR [rip+0x2d8d]        # 3f98 <__isoc99_sscanf@GLIBC_2.7>
    120b:	0f 1f 44 00 00       	nop    DWORD PTR [rax+rax*1+0x0]

0000000000001210 <setvbuf@plt>:
    1210:	f3 0f 1e fa          	endbr64 
    1214:	f2 ff 25 85 2d 00 00 	bnd jmp QWORD PTR [rip+0x2d85]        # 3fa0 <setvbuf@GLIBC_2.2.5>
    121b:	0f 1f 44 00 00       	nop    DWORD PTR [rax+rax*1+0x0]

0000000000001220 <waitpid@plt>:
    1220:	f3 0f 1e fa          	endbr64 
    1224:	f2 ff 25 7d 2d 00 00 	bnd jmp QWORD PTR [rip+0x2d7d]        # 3fa8 <waitpid@GLIBC_2.2.5>
    122b:	0f 1f 44 00 00       	nop    DWORD PTR [rax+rax*1+0x0]

0000000000001230 <open@plt>:
    1230:	f3 0f 1e fa          	endbr64 
    1234:	f2 ff 25 75 2d 00 00 	bnd jmp QWORD PTR [rip+0x2d75]        # 3fb0 <open@GLIBC_2.2.5>
    123b:	0f 1f 44 00 00       	nop    DWORD PTR [rax+rax*1+0x0]

0000000000001240 <perror@plt>:
    1240:	f3 0f 1e fa          	endbr64 
    1244:	f2 ff 25 6d 2d 00 00 	bnd jmp QWORD PTR [rip+0x2d6d]        # 3fb8 <perror@GLIBC_2.2.5>
    124b:	0f 1f 44 00 00       	nop    DWORD PTR [rax+rax*1+0x0]

0000000000001250 <getrandom@plt>:
    1250:	f3 0f 1e fa          	endbr64 
    1254:	f2 ff 25 65 2d 00 00 	bnd jmp QWORD PTR [rip+0x2d65]        # 3fc0 <getrandom@GLIBC_2.25>
    125b:	0f 1f 44 00 00       	nop    DWORD PTR [rax+rax*1+0x0]

0000000000001260 <fork@plt>:
    1260:	f3 0f 1e fa          	endbr64 
    1264:	f2 ff 25 5d 2d 00 00 	bnd jmp QWORD PTR [rip+0x2d5d]        # 3fc8 <fork@GLIBC_2.2.5>
    126b:	0f 1f 44 00 00       	nop    DWORD PTR [rax+rax*1+0x0]

Disassembly of section .text:

0000000000001270 <_start>:
    1270:	f3 0f 1e fa          	endbr64 
    1274:	31 ed                	xor    ebp,ebp
    1276:	49 89 d1             	mov    r9,rdx
    1279:	5e                   	pop    rsi
    127a:	48 89 e2             	mov    rdx,rsp
    127d:	48 83 e4 f0          	and    rsp,0xfffffffffffffff0
    1281:	50                   	push   rax
    1282:	54                   	push   rsp
    1283:	45 31 c0             	xor    r8d,r8d
    1286:	31 c9                	xor    ecx,ecx
    1288:	48 8d 3d a5 02 00 00 	lea    rdi,[rip+0x2a5]        # 1534 <main>
    128f:	ff 15 3b 2d 00 00    	call   QWORD PTR [rip+0x2d3b]        # 3fd0 <__libc_start_main@GLIBC_2.34>
    1295:	f4                   	hlt    
    1296:	66 2e 0f 1f 84 00 00 	cs nop WORD PTR [rax+rax*1+0x0]
    129d:	00 00 00 

00000000000012a0 <deregister_tm_clones>:
    12a0:	48 8d 3d 69 2d 00 00 	lea    rdi,[rip+0x2d69]        # 4010 <__TMC_END__>
    12a7:	48 8d 05 62 2d 00 00 	lea    rax,[rip+0x2d62]        # 4010 <__TMC_END__>
    12ae:	48 39 f8             	cmp    rax,rdi
    12b1:	74 15                	je     12c8 <deregister_tm_clones+0x28>
    12b3:	48 8b 05 1e 2d 00 00 	mov    rax,QWORD PTR [rip+0x2d1e]        # 3fd8 <_ITM_deregisterTMCloneTable@Base>
    12ba:	48 85 c0             	test   rax,rax
    12bd:	74 09                	je     12c8 <deregister_tm_clones+0x28>
    12bf:	ff e0                	jmp    rax
    12c1:	0f 1f 80 00 00 00 00 	nop    DWORD PTR [rax+0x0]
    12c8:	c3                   	ret    
    12c9:	0f 1f 80 00 00 00 00 	nop    DWORD PTR [rax+0x0]

00000000000012d0 <register_tm_clones>:
    12d0:	48 8d 3d 39 2d 00 00 	lea    rdi,[rip+0x2d39]        # 4010 <__TMC_END__>
    12d7:	48 8d 35 32 2d 00 00 	lea    rsi,[rip+0x2d32]        # 4010 <__TMC_END__>
    12de:	48 29 fe             	sub    rsi,rdi
    12e1:	48 89 f0             	mov    rax,rsi
    12e4:	48 c1 ee 3f          	shr    rsi,0x3f
    12e8:	48 c1 f8 03          	sar    rax,0x3
    12ec:	48 01 c6             	add    rsi,rax
    12ef:	48 d1 fe             	sar    rsi,1
    12f2:	74 14                	je     1308 <register_tm_clones+0x38>
    12f4:	48 8b 05 f5 2c 00 00 	mov    rax,QWORD PTR [rip+0x2cf5]        # 3ff0 <_ITM_registerTMCloneTable@Base>
    12fb:	48 85 c0             	test   rax,rax
    12fe:	74 08                	je     1308 <register_tm_clones+0x38>
    1300:	ff e0                	jmp    rax
    1302:	66 0f 1f 44 00 00    	nop    WORD PTR [rax+rax*1+0x0]
    1308:	c3                   	ret    
    1309:	0f 1f 80 00 00 00 00 	nop    DWORD PTR [rax+0x0]

0000000000001310 <__do_global_dtors_aux>:
    1310:	f3 0f 1e fa          	endbr64 
    1314:	80 3d 2d 2d 00 00 00 	cmp    BYTE PTR [rip+0x2d2d],0x0        # 4048 <completed.0>
    131b:	75 2b                	jne    1348 <__do_global_dtors_aux+0x38>
    131d:	55                   	push   rbp
    131e:	48 83 3d d2 2c 00 00 	cmp    QWORD PTR [rip+0x2cd2],0x0        # 3ff8 <__cxa_finalize@GLIBC_2.2.5>
    1325:	00 
    1326:	48 89 e5             	mov    rbp,rsp
    1329:	74 0c                	je     1337 <__do_global_dtors_aux+0x27>
    132b:	48 8b 3d d6 2c 00 00 	mov    rdi,QWORD PTR [rip+0x2cd6]        # 4008 <__dso_handle>
    1332:	e8 19 fe ff ff       	call   1150 <__cxa_finalize@plt>
    1337:	e8 64 ff ff ff       	call   12a0 <deregister_tm_clones>
    133c:	c6 05 05 2d 00 00 01 	mov    BYTE PTR [rip+0x2d05],0x1        # 4048 <completed.0>
    1343:	5d                   	pop    rbp
    1344:	c3                   	ret    
    1345:	0f 1f 00             	nop    DWORD PTR [rax]
    1348:	c3                   	ret    
    1349:	0f 1f 80 00 00 00 00 	nop    DWORD PTR [rax+0x0]

0000000000001350 <frame_dummy>:
    1350:	f3 0f 1e fa          	endbr64 
    1354:	e9 77 ff ff ff       	jmp    12d0 <register_tm_clones>

0000000000001359 <os_urandom>:
    1359:	f3 0f 1e fa          	endbr64 
    135d:	55                   	push   rbp
    135e:	48 89 e5             	mov    rbp,rsp
    1361:	48 83 ec 10          	sub    rsp,0x10
    1365:	64 48 8b 04 25 28 00 	mov    rax,QWORD PTR fs:0x28
    136c:	00 00 
    136e:	48 89 45 f8          	mov    QWORD PTR [rbp-0x8],rax
    1372:	31 c0                	xor    eax,eax
    1374:	48 8d 45 f4          	lea    rax,[rbp-0xc]
    1378:	ba 00 00 00 00       	mov    edx,0x0
    137d:	be 04 00 00 00       	mov    esi,0x4
    1382:	48 89 c7             	mov    rdi,rax
    1385:	e8 c6 fe ff ff       	call   1250 <getrandom@plt>
    138a:	48 85 c0             	test   rax,rax
    138d:	79 19                	jns    13a8 <os_urandom+0x4f>
    138f:	48 8d 05 72 0c 00 00 	lea    rax,[rip+0xc72]        # 2008 <_IO_stdin_used+0x8>
    1396:	48 89 c7             	mov    rdi,rax
    1399:	e8 a2 fe ff ff       	call   1240 <perror@plt>
    139e:	bf ff ff ff ff       	mov    edi,0xffffffff
    13a3:	e8 c8 fd ff ff       	call   1170 <_exit@plt>
    13a8:	8b 45 f4             	mov    eax,DWORD PTR [rbp-0xc]
    13ab:	48 8b 55 f8          	mov    rdx,QWORD PTR [rbp-0x8]
    13af:	64 48 2b 14 25 28 00 	sub    rdx,QWORD PTR fs:0x28
    13b6:	00 00 
    13b8:	74 05                	je     13bf <os_urandom+0x66>
    13ba:	e8 e1 fd ff ff       	call   11a0 <__stack_chk_fail@plt>
    13bf:	c9                   	leave  
    13c0:	c3                   	ret    

00000000000013c1 <guess>:
    13c1:	f3 0f 1e fa          	endbr64 
    13c5:	55                   	push   rbp
    13c6:	48 89 e5             	mov    rbp,rsp
    13c9:	48 83 ec 40          	sub    rsp,0x40
    13cd:	64 48 8b 04 25 28 00 	mov    rax,QWORD PTR fs:0x28
    13d4:	00 00 
    13d6:	48 89 45 f8          	mov    QWORD PTR [rbp-0x8],rax
    13da:	31 c0                	xor    eax,eax
    13dc:	48 8d 05 2f 0c 00 00 	lea    rax,[rip+0xc2f]        # 2012 <_IO_stdin_used+0x12>
    13e3:	48 89 c7             	mov    rdi,rax
    13e6:	b8 00 00 00 00       	mov    eax,0x0
    13eb:	e8 50 fd ff ff       	call   1140 <printf@plt>
    13f0:	48 8d 45 e0          	lea    rax,[rbp-0x20]
    13f4:	ba 80 00 00 00       	mov    edx,0x80
    13f9:	48 89 c6             	mov    rsi,rax
    13fc:	bf 00 00 00 00       	mov    edi,0x0
    1401:	e8 ca fd ff ff       	call   11d0 <read@plt>
    1406:	89 45 d4             	mov    DWORD PTR [rbp-0x2c],eax
    1409:	83 7d d4 00          	cmp    DWORD PTR [rbp-0x2c],0x0
    140d:	79 19                	jns    1428 <guess+0x67>
    140f:	48 8d 05 12 0c 00 00 	lea    rax,[rip+0xc12]        # 2028 <_IO_stdin_used+0x28>
    1416:	48 89 c7             	mov    rdi,rax
    1419:	e8 22 fe ff ff       	call   1240 <perror@plt>
    141e:	bf ff ff ff ff       	mov    edi,0xffffffff
    1423:	e8 48 fd ff ff       	call   1170 <_exit@plt>
    1428:	8b 45 d4             	mov    eax,DWORD PTR [rbp-0x2c]
    142b:	89 c6                	mov    esi,eax
    142d:	48 8d 05 ff 0b 00 00 	lea    rax,[rip+0xbff]        # 2033 <_IO_stdin_used+0x33>
    1434:	48 89 c7             	mov    rdi,rax
    1437:	b8 00 00 00 00       	mov    eax,0x0
    143c:	e8 ff fc ff ff       	call   1140 <printf@plt>
    1441:	48 8d 55 cc          	lea    rdx,[rbp-0x34]
    1445:	48 8d 45 e0          	lea    rax,[rbp-0x20]
    1449:	48 8d 0d fe 0b 00 00 	lea    rcx,[rip+0xbfe]        # 204e <_IO_stdin_used+0x4e>
    1450:	48 89 ce             	mov    rsi,rcx
    1453:	48 89 c7             	mov    rdi,rax
    1456:	b8 00 00 00 00       	mov    eax,0x0
    145b:	e8 a0 fd ff ff       	call   1200 <__isoc99_sscanf@plt>
    1460:	83 f8 01             	cmp    eax,0x1
    1463:	74 19                	je     147e <guess+0xbd>
    1465:	48 8d 05 e5 0b 00 00 	lea    rax,[rip+0xbe5]        # 2051 <_IO_stdin_used+0x51>
    146c:	48 89 c7             	mov    rdi,rax
    146f:	e8 cc fd ff ff       	call   1240 <perror@plt>
    1474:	bf ff ff ff ff       	mov    edi,0xffffffff
    1479:	e8 f2 fc ff ff       	call   1170 <_exit@plt>
    147e:	48 8d 05 d9 0b 00 00 	lea    rax,[rip+0xbd9]        # 205e <_IO_stdin_used+0x5e>
    1485:	48 89 c7             	mov    rdi,rax
    1488:	e8 f3 fc ff ff       	call   1180 <puts@plt>
    148d:	48 8d 45 e0          	lea    rax,[rbp-0x20]
    1491:	48 89 45 d8          	mov    QWORD PTR [rbp-0x28],rax
    1495:	c7 45 d0 00 00 00 00 	mov    DWORD PTR [rbp-0x30],0x0
    149c:	eb 2d                	jmp    14cb <guess+0x10a>
    149e:	8b 45 d0             	mov    eax,DWORD PTR [rbp-0x30]
    14a1:	48 63 d0             	movsxd rdx,eax
    14a4:	48 8b 45 d8          	mov    rax,QWORD PTR [rbp-0x28]
    14a8:	48 01 d0             	add    rax,rdx
    14ab:	0f b6 00             	movzx  eax,BYTE PTR [rax]
    14ae:	0f b6 c0             	movzx  eax,al
    14b1:	89 c6                	mov    esi,eax
    14b3:	48 8d 05 b5 0b 00 00 	lea    rax,[rip+0xbb5]        # 206f <_IO_stdin_used+0x6f>
    14ba:	48 89 c7             	mov    rdi,rax
    14bd:	b8 00 00 00 00       	mov    eax,0x0
    14c2:	e8 79 fc ff ff       	call   1140 <printf@plt>
    14c7:	83 45 d0 01          	add    DWORD PTR [rbp-0x30],0x1
    14cb:	83 7d d0 0f          	cmp    DWORD PTR [rbp-0x30],0xf
    14cf:	7e cd                	jle    149e <guess+0xdd>
    14d1:	bf 0a 00 00 00       	mov    edi,0xa
    14d6:	e8 85 fc ff ff       	call   1160 <putchar@plt>
    14db:	48 8d 45 e0          	lea    rax,[rbp-0x20]
    14df:	ba 00 00 00 00       	mov    edx,0x0
    14e4:	be 00 00 00 00       	mov    esi,0x0
    14e9:	48 89 c7             	mov    rdi,rax
    14ec:	e8 ff fc ff ff       	call   11f0 <strtol@plt>
    14f1:	48 89 c6             	mov    rsi,rax
    14f4:	48 8d 05 7b 0b 00 00 	lea    rax,[rip+0xb7b]        # 2076 <_IO_stdin_used+0x76>
    14fb:	48 89 c7             	mov    rdi,rax
    14fe:	b8 00 00 00 00       	mov    eax,0x0
    1503:	e8 38 fc ff ff       	call   1140 <printf@plt>
    1508:	48 8d 45 e0          	lea    rax,[rbp-0x20]
    150c:	ba 00 00 00 00       	mov    edx,0x0
    1511:	be 00 00 00 00       	mov    esi,0x0
    1516:	48 89 c7             	mov    rdi,rax
    1519:	e8 d2 fc ff ff       	call   11f0 <strtol@plt>
    151e:	48 8b 55 f8          	mov    rdx,QWORD PTR [rbp-0x8]
    1522:	64 48 2b 14 25 28 00 	sub    rdx,QWORD PTR fs:0x28
    1529:	00 00 
    152b:	74 05                	je     1532 <guess+0x171>
    152d:	e8 6e fc ff ff       	call   11a0 <__stack_chk_fail@plt>
    1532:	c9                   	leave  
    1533:	c3                   	ret    

0000000000001534 <main>:
    1534:	f3 0f 1e fa          	endbr64 
    1538:	55                   	push   rbp
    1539:	48 89 e5             	mov    rbp,rsp
    153c:	48 83 ec 70          	sub    rsp,0x70
    1540:	64 48 8b 04 25 28 00 	mov    rax,QWORD PTR fs:0x28
    1547:	00 00 
    1549:	48 89 45 f8          	mov    QWORD PTR [rbp-0x8],rax
    154d:	31 c0                	xor    eax,eax
    154f:	c7 45 9c 78 56 34 12 	mov    DWORD PTR [rbp-0x64],0x12345678
    1556:	48 8b 05 d3 2a 00 00 	mov    rax,QWORD PTR [rip+0x2ad3]        # 4030 <stdin@GLIBC_2.2.5>
    155d:	b9 00 00 00 00       	mov    ecx,0x0
    1562:	ba 02 00 00 00       	mov    edx,0x2
    1567:	be 00 00 00 00       	mov    esi,0x0
    156c:	48 89 c7             	mov    rdi,rax
    156f:	e8 9c fc ff ff       	call   1210 <setvbuf@plt>
    1574:	48 8b 05 a5 2a 00 00 	mov    rax,QWORD PTR [rip+0x2aa5]        # 4020 <stdout@GLIBC_2.2.5>
    157b:	b9 00 00 00 00       	mov    ecx,0x0
    1580:	ba 02 00 00 00       	mov    edx,0x2
    1585:	be 00 00 00 00       	mov    esi,0x0
    158a:	48 89 c7             	mov    rdi,rax
    158d:	e8 7e fc ff ff       	call   1210 <setvbuf@plt>
    1592:	48 8b 05 a7 2a 00 00 	mov    rax,QWORD PTR [rip+0x2aa7]        # 4040 <stderr@GLIBC_2.2.5>
    1599:	b9 00 00 00 00       	mov    ecx,0x0
    159e:	ba 02 00 00 00       	mov    edx,0x2
    15a3:	be 00 00 00 00       	mov    esi,0x0
    15a8:	48 89 c7             	mov    rdi,rax
    15ab:	e8 60 fc ff ff       	call   1210 <setvbuf@plt>
    15b0:	48 8d 05 d1 0a 00 00 	lea    rax,[rip+0xad1]        # 2088 <_IO_stdin_used+0x88>
    15b7:	48 89 c7             	mov    rdi,rax
    15ba:	b8 00 00 00 00       	mov    eax,0x0
    15bf:	e8 7c fb ff ff       	call   1140 <printf@plt>
    15c4:	48 8b 15 65 2a 00 00 	mov    rdx,QWORD PTR [rip+0x2a65]        # 4030 <stdin@GLIBC_2.2.5>
    15cb:	48 8d 45 b0          	lea    rax,[rbp-0x50]
    15cf:	be 40 00 00 00       	mov    esi,0x40
    15d4:	48 89 c7             	mov    rdi,rax
    15d7:	e8 04 fc ff ff       	call   11e0 <fgets@plt>
    15dc:	48 85 c0             	test   rax,rax
    15df:	75 19                	jne    15fa <main+0xc6>
    15e1:	48 8d 05 e4 0a 00 00 	lea    rax,[rip+0xae4]        # 20cc <_IO_stdin_used+0xcc>
    15e8:	48 89 c7             	mov    rdi,rax
    15eb:	e8 50 fc ff ff       	call   1240 <perror@plt>
    15f0:	bf ff ff ff ff       	mov    edi,0xffffffff
    15f5:	e8 76 fb ff ff       	call   1170 <_exit@plt>
    15fa:	48 8d 55 98          	lea    rdx,[rbp-0x68]
    15fe:	48 8d 45 b0          	lea    rax,[rbp-0x50]
    1602:	48 8d 0d 45 0a 00 00 	lea    rcx,[rip+0xa45]        # 204e <_IO_stdin_used+0x4e>
    1609:	48 89 ce             	mov    rsi,rcx
    160c:	48 89 c7             	mov    rdi,rax
    160f:	b8 00 00 00 00       	mov    eax,0x0
    1614:	e8 e7 fb ff ff       	call   1200 <__isoc99_sscanf@plt>
    1619:	83 f8 01             	cmp    eax,0x1
    161c:	74 19                	je     1637 <main+0x103>
    161e:	48 8d 05 ac 0a 00 00 	lea    rax,[rip+0xaac]        # 20d1 <_IO_stdin_used+0xd1>
    1625:	48 89 c7             	mov    rdi,rax
    1628:	e8 13 fc ff ff       	call   1240 <perror@plt>
    162d:	bf ff ff ff ff       	mov    edi,0xffffffff
    1632:	e8 39 fb ff ff       	call   1170 <_exit@plt>
    1637:	8b 45 98             	mov    eax,DWORD PTR [rbp-0x68]
    163a:	85 c0                	test   eax,eax
    163c:	0f 8e 17 02 00 00    	jle    1859 <main+0x325>
    1642:	48 8d 05 8f 0a 00 00 	lea    rax,[rip+0xa8f]        # 20d8 <_IO_stdin_used+0xd8>
    1649:	48 89 c7             	mov    rdi,rax
    164c:	b8 00 00 00 00       	mov    eax,0x0
    1651:	e8 ea fa ff ff       	call   1140 <printf@plt>
    1656:	48 8b 15 d3 29 00 00 	mov    rdx,QWORD PTR [rip+0x29d3]        # 4030 <stdin@GLIBC_2.2.5>
    165d:	48 8d 45 b0          	lea    rax,[rbp-0x50]
    1661:	be 40 00 00 00       	mov    esi,0x40
    1666:	48 89 c7             	mov    rdi,rax
    1669:	e8 72 fb ff ff       	call   11e0 <fgets@plt>
    166e:	48 85 c0             	test   rax,rax
    1671:	75 19                	jne    168c <main+0x158>
    1673:	48 8d 05 52 0a 00 00 	lea    rax,[rip+0xa52]        # 20cc <_IO_stdin_used+0xcc>
    167a:	48 89 c7             	mov    rdi,rax
    167d:	e8 be fb ff ff       	call   1240 <perror@plt>
    1682:	bf ff ff ff ff       	mov    edi,0xffffffff
    1687:	e8 e4 fa ff ff       	call   1170 <_exit@plt>
    168c:	48 8d 55 9c          	lea    rdx,[rbp-0x64]
    1690:	48 8d 45 b0          	lea    rax,[rbp-0x50]
    1694:	48 8d 0d b3 09 00 00 	lea    rcx,[rip+0x9b3]        # 204e <_IO_stdin_used+0x4e>
    169b:	48 89 ce             	mov    rsi,rcx
    169e:	48 89 c7             	mov    rdi,rax
    16a1:	b8 00 00 00 00       	mov    eax,0x0
    16a6:	e8 55 fb ff ff       	call   1200 <__isoc99_sscanf@plt>
    16ab:	83 f8 01             	cmp    eax,0x1
    16ae:	74 19                	je     16c9 <main+0x195>
    16b0:	48 8d 05 1a 0a 00 00 	lea    rax,[rip+0xa1a]        # 20d1 <_IO_stdin_used+0xd1>
    16b7:	48 89 c7             	mov    rdi,rax
    16ba:	e8 81 fb ff ff       	call   1240 <perror@plt>
    16bf:	bf ff ff ff ff       	mov    edi,0xffffffff
    16c4:	e8 a7 fa ff ff       	call   1170 <_exit@plt>
    16c9:	8b 45 98             	mov    eax,DWORD PTR [rbp-0x68]
    16cc:	8d 90 ff 0f 00 00    	lea    edx,[rax+0xfff]
    16d2:	85 c0                	test   eax,eax
    16d4:	0f 48 c2             	cmovs  eax,edx
    16d7:	c1 f8 0c             	sar    eax,0xc
    16da:	83 c0 01             	add    eax,0x1
    16dd:	c1 e0 0c             	shl    eax,0xc
    16e0:	89 45 94             	mov    DWORD PTR [rbp-0x6c],eax
    16e3:	8b 45 94             	mov    eax,DWORD PTR [rbp-0x6c]
    16e6:	ba 00 00 01 00       	mov    edx,0x10000
    16eb:	39 d0                	cmp    eax,edx
    16ed:	0f 4f c2             	cmovg  eax,edx
    16f0:	48 98                	cdqe   
    16f2:	41 b9 00 00 00 00    	mov    r9d,0x0
    16f8:	41 b8 ff ff ff ff    	mov    r8d,0xffffffff
    16fe:	b9 22 00 00 00       	mov    ecx,0x22
    1703:	ba 07 00 00 00       	mov    edx,0x7
    1708:	48 89 c6             	mov    rsi,rax
    170b:	bf 00 00 00 00       	mov    edi,0x0
    1710:	e8 9b fa ff ff       	call   11b0 <mmap@plt>
    1715:	48 89 45 a8          	mov    QWORD PTR [rbp-0x58],rax
    1719:	48 83 7d a8 00       	cmp    QWORD PTR [rbp-0x58],0x0
    171e:	75 19                	jne    1739 <main+0x205>
    1720:	48 8d 05 ef 09 00 00 	lea    rax,[rip+0x9ef]        # 2116 <_IO_stdin_used+0x116>
    1727:	48 89 c7             	mov    rdi,rax
    172a:	e8 11 fb ff ff       	call   1240 <perror@plt>
    172f:	bf ff ff ff ff       	mov    edi,0xffffffff
    1734:	e8 37 fa ff ff       	call   1170 <_exit@plt>
    1739:	8b 45 98             	mov    eax,DWORD PTR [rbp-0x68]
    173c:	89 c6                	mov    esi,eax
    173e:	48 8d 05 db 09 00 00 	lea    rax,[rip+0x9db]        # 2120 <_IO_stdin_used+0x120>
    1745:	48 89 c7             	mov    rdi,rax
    1748:	b8 00 00 00 00       	mov    eax,0x0
    174d:	e8 ee f9 ff ff       	call   1140 <printf@plt>
    1752:	c7 45 a0 00 00 00 00 	mov    DWORD PTR [rbp-0x60],0x0
    1759:	eb 4b                	jmp    17a6 <main+0x272>
    175b:	8b 45 98             	mov    eax,DWORD PTR [rbp-0x68]
    175e:	48 98                	cdqe   
    1760:	8b 55 a0             	mov    edx,DWORD PTR [rbp-0x60]
    1763:	48 63 ca             	movsxd rcx,edx
    1766:	48 8b 55 a8          	mov    rdx,QWORD PTR [rbp-0x58]
    176a:	48 01 d1             	add    rcx,rdx
    176d:	48 89 c2             	mov    rdx,rax
    1770:	48 89 ce             	mov    rsi,rcx
    1773:	bf 00 00 00 00       	mov    edi,0x0
    1778:	e8 53 fa ff ff       	call   11d0 <read@plt>
    177d:	89 45 94             	mov    DWORD PTR [rbp-0x6c],eax
    1780:	8b 45 94             	mov    eax,DWORD PTR [rbp-0x6c]
    1783:	85 c0                	test   eax,eax
    1785:	79 19                	jns    17a0 <main+0x26c>
    1787:	48 8d 05 3e 09 00 00 	lea    rax,[rip+0x93e]        # 20cc <_IO_stdin_used+0xcc>
    178e:	48 89 c7             	mov    rdi,rax
    1791:	e8 aa fa ff ff       	call   1240 <perror@plt>
    1796:	bf ff ff ff ff       	mov    edi,0xffffffff
    179b:	e8 d0 f9 ff ff       	call   1170 <_exit@plt>
    17a0:	8b 45 94             	mov    eax,DWORD PTR [rbp-0x6c]
    17a3:	01 45 a0             	add    DWORD PTR [rbp-0x60],eax
    17a6:	8b 45 98             	mov    eax,DWORD PTR [rbp-0x68]
    17a9:	39 45 a0             	cmp    DWORD PTR [rbp-0x60],eax
    17ac:	75 ad                	jne    175b <main+0x227>
    17ae:	8b 45 a0             	mov    eax,DWORD PTR [rbp-0x60]
    17b1:	89 c6                	mov    esi,eax
    17b3:	48 8d 05 86 09 00 00 	lea    rax,[rip+0x986]        # 2140 <_IO_stdin_used+0x140>
    17ba:	48 89 c7             	mov    rdi,rax
    17bd:	b8 00 00 00 00       	mov    eax,0x0
    17c2:	e8 79 f9 ff ff       	call   1140 <printf@plt>
    17c7:	e8 94 fa ff ff       	call   1260 <fork@plt>
    17cc:	89 45 a4             	mov    DWORD PTR [rbp-0x5c],eax
    17cf:	83 7d a4 00          	cmp    DWORD PTR [rbp-0x5c],0x0
    17d3:	79 19                	jns    17ee <main+0x2ba>
    17d5:	48 8d 05 83 09 00 00 	lea    rax,[rip+0x983]        # 215f <_IO_stdin_used+0x15f>
    17dc:	48 89 c7             	mov    rdi,rax
    17df:	e8 5c fa ff ff       	call   1240 <perror@plt>
    17e4:	bf ff ff ff ff       	mov    edi,0xffffffff
    17e9:	e8 82 f9 ff ff       	call   1170 <_exit@plt>
    17ee:	83 7d a4 00          	cmp    DWORD PTR [rbp-0x5c],0x0
    17f2:	75 32                	jne    1826 <main+0x2f2>
    17f4:	8b 45 9c             	mov    eax,DWORD PTR [rbp-0x64]
    17f7:	48 98                	cdqe   
    17f9:	48 01 45 a8          	add    QWORD PTR [rbp-0x58],rax
    17fd:	48 8b 45 a8          	mov    rax,QWORD PTR [rbp-0x58]
    1801:	48 8b 15 d8 27 00 00 	mov    rdx,QWORD PTR [rip+0x27d8]        # 3fe0 <printf@GLIBC_2.2.5>
    1808:	48 89 d7             	mov    rdi,rdx
    180b:	ff d0                	call   rax
    180d:	48 8d 05 50 09 00 00 	lea    rax,[rip+0x950]        # 2164 <_IO_stdin_used+0x164>
    1814:	48 89 c7             	mov    rdi,rax
    1817:	e8 64 f9 ff ff       	call   1180 <puts@plt>
    181c:	bf 00 00 00 00       	mov    edi,0x0
    1821:	e8 4a f9 ff ff       	call   1170 <_exit@plt>
    1826:	48 8d 4d 94          	lea    rcx,[rbp-0x6c]
    182a:	8b 45 a4             	mov    eax,DWORD PTR [rbp-0x5c]
    182d:	ba 00 00 00 00       	mov    edx,0x0
    1832:	48 89 ce             	mov    rsi,rcx
    1835:	89 c7                	mov    edi,eax
    1837:	e8 e4 f9 ff ff       	call   1220 <waitpid@plt>
    183c:	85 c0                	test   eax,eax
    183e:	79 19                	jns    1859 <main+0x325>
    1840:	48 8d 05 3a 09 00 00 	lea    rax,[rip+0x93a]        # 2181 <_IO_stdin_used+0x181>
    1847:	48 89 c7             	mov    rdi,rax
    184a:	e8 f1 f9 ff ff       	call   1240 <perror@plt>
    184f:	bf ff ff ff ff       	mov    edi,0xffffffff
    1854:	e8 17 f9 ff ff       	call   1170 <_exit@plt>
    1859:	48 8d 45 b0          	lea    rax,[rbp-0x50]
    185d:	48 c7 00 00 00 00 00 	mov    QWORD PTR [rax],0x0
    1864:	48 c7 40 08 00 00 00 	mov    QWORD PTR [rax+0x8],0x0
    186b:	00 
    186c:	48 c7 40 10 00 00 00 	mov    QWORD PTR [rax+0x10],0x0
    1873:	00 
    1874:	48 c7 40 18 00 00 00 	mov    QWORD PTR [rax+0x18],0x0
    187b:	00 
    187c:	48 c7 40 20 00 00 00 	mov    QWORD PTR [rax+0x20],0x0
    1883:	00 
    1884:	48 c7 40 28 00 00 00 	mov    QWORD PTR [rax+0x28],0x0
    188b:	00 
    188c:	48 c7 40 30 00 00 00 	mov    QWORD PTR [rax+0x30],0x0
    1893:	00 
    1894:	48 c7 40 38 00 00 00 	mov    QWORD PTR [rax+0x38],0x0
    189b:	00 
    189c:	b8 00 00 00 00       	mov    eax,0x0
    18a1:	e8 b3 fa ff ff       	call   1359 <os_urandom>
    18a6:	25 ff ff ff 7f       	and    eax,0x7fffffff
    18ab:	89 45 9c             	mov    DWORD PTR [rbp-0x64],eax
    18ae:	8b 45 a0             	mov    eax,DWORD PTR [rbp-0x60]
    18b1:	89 c6                	mov    esi,eax
    18b3:	48 8d 05 cf 08 00 00 	lea    rax,[rip+0x8cf]        # 2189 <_IO_stdin_used+0x189>
    18ba:	48 89 c7             	mov    rdi,rax
    18bd:	b8 00 00 00 00       	mov    eax,0x0
    18c2:	e8 79 f8 ff ff       	call   1140 <printf@plt>
    18c7:	b8 00 00 00 00       	mov    eax,0x0
    18cc:	e8 f0 fa ff ff       	call   13c1 <guess>
    18d1:	89 45 a0             	mov    DWORD PTR [rbp-0x60],eax
    18d4:	8b 45 a0             	mov    eax,DWORD PTR [rbp-0x60]
    18d7:	89 c6                	mov    esi,eax
    18d9:	48 8d 05 a9 08 00 00 	lea    rax,[rip+0x8a9]        # 2189 <_IO_stdin_used+0x189>
    18e0:	48 89 c7             	mov    rdi,rax
    18e3:	b8 00 00 00 00       	mov    eax,0x0
    18e8:	e8 53 f8 ff ff       	call   1140 <printf@plt>
    18ed:	8b 45 9c             	mov    eax,DWORD PTR [rbp-0x64]
    18f0:	39 45 a0             	cmp    DWORD PTR [rbp-0x60],eax
    18f3:	0f 85 a2 00 00 00    	jne    199b <main+0x467>
    18f9:	48 8d 05 94 08 00 00 	lea    rax,[rip+0x894]        # 2194 <_IO_stdin_used+0x194>
    1900:	48 89 c7             	mov    rdi,rax
    1903:	e8 78 f8 ff ff       	call   1180 <puts@plt>
    1908:	be 00 00 00 00       	mov    esi,0x0
    190d:	48 8d 05 8d 08 00 00 	lea    rax,[rip+0x88d]        # 21a1 <_IO_stdin_used+0x1a1>
    1914:	48 89 c7             	mov    rdi,rax
    1917:	b8 00 00 00 00       	mov    eax,0x0
    191c:	e8 0f f9 ff ff       	call   1230 <open@plt>
    1921:	89 45 94             	mov    DWORD PTR [rbp-0x6c],eax
    1924:	8b 45 94             	mov    eax,DWORD PTR [rbp-0x6c]
    1927:	85 c0                	test   eax,eax
    1929:	79 48                	jns    1973 <main+0x43f>
    192b:	48 8d 05 75 08 00 00 	lea    rax,[rip+0x875]        # 21a7 <_IO_stdin_used+0x1a7>
    1932:	48 89 c7             	mov    rdi,rax
    1935:	e8 06 f9 ff ff       	call   1240 <perror@plt>
    193a:	bf ff ff ff ff       	mov    edi,0xffffffff
    193f:	e8 2c f8 ff ff       	call   1170 <_exit@plt>
    1944:	8b 45 9c             	mov    eax,DWORD PTR [rbp-0x64]
    1947:	39 45 a0             	cmp    DWORD PTR [rbp-0x60],eax
    194a:	74 11                	je     195d <main+0x429>
    194c:	48 8d 05 5d 08 00 00 	lea    rax,[rip+0x85d]        # 21b0 <_IO_stdin_used+0x1b0>
    1953:	48 89 c7             	mov    rdi,rax
    1956:	e8 25 f8 ff ff       	call   1180 <puts@plt>
    195b:	eb 32                	jmp    198f <main+0x45b>
    195d:	48 8d 45 b0          	lea    rax,[rbp-0x50]
    1961:	ba 01 00 00 00       	mov    edx,0x1
    1966:	48 89 c6             	mov    rsi,rax
    1969:	bf 01 00 00 00       	mov    edi,0x1
    196e:	e8 1d f8 ff ff       	call   1190 <write@plt>
    1973:	8b 45 94             	mov    eax,DWORD PTR [rbp-0x6c]
    1976:	48 8d 4d b0          	lea    rcx,[rbp-0x50]
    197a:	ba 01 00 00 00       	mov    edx,0x1
    197f:	48 89 ce             	mov    rsi,rcx
    1982:	89 c7                	mov    edi,eax
    1984:	e8 47 f8 ff ff       	call   11d0 <read@plt>
    1989:	48 83 f8 01          	cmp    rax,0x1
    198d:	74 b5                	je     1944 <main+0x410>
    198f:	8b 45 94             	mov    eax,DWORD PTR [rbp-0x6c]
    1992:	89 c7                	mov    edi,eax
    1994:	e8 27 f8 ff ff       	call   11c0 <close@plt>
    1999:	eb 19                	jmp    19b4 <main+0x480>
    199b:	8b 45 9c             	mov    eax,DWORD PTR [rbp-0x64]
    199e:	89 c6                	mov    esi,eax
    19a0:	48 8d 05 2f 08 00 00 	lea    rax,[rip+0x82f]        # 21d6 <_IO_stdin_used+0x1d6>
    19a7:	48 89 c7             	mov    rdi,rax
    19aa:	b8 00 00 00 00       	mov    eax,0x0
    19af:	e8 8c f7 ff ff       	call   1140 <printf@plt>
    19b4:	b8 00 00 00 00       	mov    eax,0x0
    19b9:	48 8b 55 f8          	mov    rdx,QWORD PTR [rbp-0x8]
    19bd:	64 48 2b 14 25 28 00 	sub    rdx,QWORD PTR fs:0x28
    19c4:	00 00 
    19c6:	74 05                	je     19cd <main+0x499>
    19c8:	e8 d3 f7 ff ff       	call   11a0 <__stack_chk_fail@plt>
    19cd:	c9                   	leave  
    19ce:	c3                   	ret    

Disassembly of section .fini:

00000000000019d0 <_fini>:
    19d0:	f3 0f 1e fa          	endbr64 
    19d4:	48 83 ec 08          	sub    rsp,0x8
    19d8:	48 83 c4 08          	add    rsp,0x8
    19dc:	c3                   	ret    
